target datalayout = "e-m:e-p270:32:32-p271:32:32-p272:64:64-i64:64-i128:128-f80:128-n8:16:32:64-S128"
target triple = "x86_64-unknown-linux-gnu"

%"class.std::shared_ptr.293" = type { %"class.std::__shared_ptr.294" }
%"class.std::__shared_ptr.294" = type { ptr, %"class.std::__shared_count" }
%"class.std::__shared_count" = type { ptr }
%"class.std::vector.100" = type { %"struct.std::_Vector_base.101" }
%"struct.std::_Vector_base.101" = type { %"struct.std::_Vector_base<std::__cxx11::basic_string<char>, std::allocator<std::__cxx11::basic_string<char>>>::_Vector_impl" }
%"struct.std::_Vector_base<std::__cxx11::basic_string<char>, std::allocator<std::__cxx11::basic_string<char>>>::_Vector_impl" = type { %"struct.std::_Vector_base<std::__cxx11::basic_string<char>, std::allocator<std::__cxx11::basic_string<char>>>::_Vector_impl_data" }
%"struct.std::_Vector_base<std::__cxx11::basic_string<char>, std::allocator<std::__cxx11::basic_string<char>>>::_Vector_impl_data" = type { ptr, ptr, ptr }
%"class.std::__cxx11::basic_string" = type { %"struct.std::__cxx11::basic_string<char>::_Alloc_hider", i64, %union.anon.85 }
%"struct.std::__cxx11::basic_string<char>::_Alloc_hider" = type { ptr }
%union.anon.85 = type { i64, [8 x i8] }
%"struct.std::atomic.176" = type { %"struct.std::__atomic_base.177" }
%"struct.std::__atomic_base.177" = type { i64 }
%"class.node::Options" = type { ptr }
%"class.node::NodeArrayBufferAllocator" = type { %"class.node::ArrayBufferAllocator", i32, %"struct.std::atomic.176", %"class.std::unique_ptr.282" }
%"class.node::ArrayBufferAllocator" = type { %"class.v8::ArrayBuffer::Allocator" }
%"class.v8::ArrayBuffer::Allocator" = type { ptr }
%"class.std::unique_ptr.282" = type { %"struct.std::__uniq_ptr_data.283" }
%"struct.std::__uniq_ptr_data.283" = type { %"class.std::__uniq_ptr_impl.284" }
%"class.std::__uniq_ptr_impl.284" = type { %"class.std::tuple.285" }
%"class.std::tuple.285" = type { %"struct.std::_Tuple_impl.286" }
%"struct.std::_Tuple_impl.286" = type { %"struct.std::_Head_base.289" }
%"struct.std::_Head_base.289" = type { ptr }
%"class.node::PerProcessOptions" = type { %"class.node::Options", %"class.std::shared_ptr.290", %"class.std::__cxx11::basic_string", %"class.std::__cxx11::basic_string", %"class.std::__cxx11::basic_string", i64, i8, i8, %"class.std::__cxx11::basic_string", i8, %"class.std::__cxx11::basic_string", %"class.std::vector.100", i8, i8, i8, i8, %"class.std::__cxx11::basic_string", %"class.std::__cxx11::basic_string", %"class.std::__cxx11::basic_string", %"class.std::__cxx11::basic_string", i64, i64, i8, i8, i8, i8, i8, i8, i8, i8, i8, %"class.std::__cxx11::basic_string", %"class.std::__cxx11::basic_string", %"class.std::__cxx11::basic_string", i8, %"class.std::vector.100" }
%"class.std::shared_ptr.290" = type { %"class.std::__shared_ptr.291" }
%"class.std::__shared_ptr.291" = type { ptr, %"class.std::__shared_count" }

@_ZN4node11per_process11cli_optionsE = external global %"class.std::shared_ptr.293", align 8

; Function Attrs: mustprogress nounwind uwtable
define linkonce_odr dso_local noundef nonnull align 8 dereferenceable(8) ptr @_ZNSt10_Head_baseILm0EPN2v811ArrayBuffer9AllocatorELb0EE7_M_headERKS4_(ptr noundef nonnull align 8 dereferenceable(8) %__b) #4 comdat align 2 {
entry:
  %__b.addr = alloca ptr, align 8
  store ptr %__b, ptr %__b.addr, align 8
  %0 = load ptr, ptr %__b.addr, align 8
  %_M_head_impl = getelementptr inbounds %"struct.std::_Head_base.289", ptr %0, i32 0, i32 0
  ret ptr %_M_head_impl
}

; Function Attrs: mustprogress nounwind uwtable
define linkonce_odr dso_local noundef nonnull align 8 dereferenceable(8) ptr @_ZNSt11_Tuple_implILm0EJPN2v811ArrayBuffer9AllocatorESt14default_deleteIS2_EEE7_M_headERKS6_(ptr noundef nonnull align 8 dereferenceable(8) %__t) #4 comdat align 2 {
entry:
  %__t.addr = alloca ptr, align 8
  store ptr %__t, ptr %__t.addr, align 8
  %0 = load ptr, ptr %__t.addr, align 8
  %call = call noundef nonnull align 8 dereferenceable(8) ptr @_ZNSt10_Head_baseILm0EPN2v811ArrayBuffer9AllocatorELb0EE7_M_headERKS4_(ptr noundef nonnull align 8 dereferenceable(8) %0) #3
  ret ptr %call
}

; Function Attrs: mustprogress nounwind uwtable
define linkonce_odr dso_local noundef nonnull align 8 dereferenceable(8) ptr @_ZSt12__get_helperILm0EPN2v811ArrayBuffer9AllocatorEJSt14default_deleteIS2_EEERKT0_RKSt11_Tuple_implIXT_EJS6_DpT1_EE(ptr noundef nonnull align 8 dereferenceable(8) %__t) #4 comdat {
entry:
  %__t.addr = alloca ptr, align 8
  store ptr %__t, ptr %__t.addr, align 8
  %0 = load ptr, ptr %__t.addr, align 8
  %call = call noundef nonnull align 8 dereferenceable(8) ptr @_ZNSt11_Tuple_implILm0EJPN2v811ArrayBuffer9AllocatorESt14default_deleteIS2_EEE7_M_headERKS6_(ptr noundef nonnull align 8 dereferenceable(8) %0) #3
  ret ptr %call
}

; Function Attrs: mustprogress nounwind uwtable
define linkonce_odr dso_local noundef nonnull align 8 dereferenceable(8) ptr @_ZSt3getILm0EJPN2v811ArrayBuffer9AllocatorESt14default_deleteIS2_EEERKNSt13tuple_elementIXT_ESt5tupleIJDpT0_EEE4typeERKSA_(ptr noundef nonnull align 8 dereferenceable(8) %__t) #4 comdat {
entry:
  %__t.addr = alloca ptr, align 8
  store ptr %__t, ptr %__t.addr, align 8
  %0 = load ptr, ptr %__t.addr, align 8
  %call = call noundef nonnull align 8 dereferenceable(8) ptr @_ZSt12__get_helperILm0EPN2v811ArrayBuffer9AllocatorEJSt14default_deleteIS2_EEERKT0_RKSt11_Tuple_implIXT_EJS6_DpT1_EE(ptr noundef nonnull align 8 dereferenceable(8) %0) #3
  ret ptr %call
}

; Function Attrs: mustprogress nounwind uwtable
define linkonce_odr dso_local noundef ptr @_ZNKSt15__uniq_ptr_implIN2v811ArrayBuffer9AllocatorESt14default_deleteIS2_EE6_M_ptrEv(ptr noundef nonnull align 8 dereferenceable(8) %this) #4 comdat align 2 {
entry:
  %this.addr = alloca ptr, align 8
  store ptr %this, ptr %this.addr, align 8
  %this1 = load ptr, ptr %this.addr, align 8
  %_M_t = getelementptr inbounds %"class.std::__uniq_ptr_impl.284", ptr %this1, i32 0, i32 0
  %call = call noundef nonnull align 8 dereferenceable(8) ptr @_ZSt3getILm0EJPN2v811ArrayBuffer9AllocatorESt14default_deleteIS2_EEERKNSt13tuple_elementIXT_ESt5tupleIJDpT0_EEE4typeERKSA_(ptr noundef nonnull align 8 dereferenceable(8) %_M_t) #3
  %0 = load ptr, ptr %call, align 8
  ret ptr %0
}

; Function Attrs: mustprogress nounwind uwtable
define linkonce_odr dso_local noundef ptr @_ZNKSt12__shared_ptrIN4node17PerProcessOptionsELN9__gnu_cxx12_Lock_policyE2EE3getEv(ptr noundef nonnull align 8 dereferenceable(16) %this) #4 comdat align 2 {
entry:
  %this.addr = alloca ptr, align 8
  store ptr %this, ptr %this.addr, align 8
  %this1 = load ptr, ptr %this.addr, align 8
  %_M_ptr = getelementptr inbounds %"class.std::__shared_ptr.294", ptr %this1, i32 0, i32 0
  %0 = load ptr, ptr %_M_ptr, align 8
  ret ptr %0
}

; Function Attrs: mustprogress nounwind uwtable
define linkonce_odr dso_local noundef ptr @_ZNKSt10unique_ptrIN2v811ArrayBuffer9AllocatorESt14default_deleteIS2_EE3getEv(ptr noundef nonnull align 8 dereferenceable(8) %this) #4 comdat align 2 {
entry:
  %this.addr = alloca ptr, align 8
  store ptr %this, ptr %this.addr, align 8
  %this1 = load ptr, ptr %this.addr, align 8
  %_M_t = getelementptr inbounds %"class.std::unique_ptr.282", ptr %this1, i32 0, i32 0
  %call = call noundef ptr @_ZNKSt15__uniq_ptr_implIN2v811ArrayBuffer9AllocatorESt14default_deleteIS2_EE6_M_ptrEv(ptr noundef nonnull align 8 dereferenceable(8) %_M_t) #3
  ret ptr %call
}

; Function Attrs: mustprogress nounwind uwtable
define linkonce_odr dso_local noundef ptr @_ZNKSt19__shared_ptr_accessIN4node17PerProcessOptionsELN9__gnu_cxx12_Lock_policyE2ELb0ELb0EE6_M_getEv(ptr noundef nonnull align 1 dereferenceable(1) %this) #4 comdat align 2 {
entry:
  %this.addr = alloca ptr, align 8
  store ptr %this, ptr %this.addr, align 8
  %this1 = load ptr, ptr %this.addr, align 8
  %call = call noundef ptr @_ZNKSt12__shared_ptrIN4node17PerProcessOptionsELN9__gnu_cxx12_Lock_policyE2EE3getEv(ptr noundef nonnull align 8 dereferenceable(16) %this1) #3
  ret ptr %call
}

; Function Attrs: mustprogress nounwind uwtable
define linkonce_odr dso_local noundef ptr @_ZNKSt10unique_ptrIN2v811ArrayBuffer9AllocatorESt14default_deleteIS2_EEptEv(ptr noundef nonnull align 8 dereferenceable(8) %this) #4 comdat align 2 {
entry:
  %this.addr = alloca ptr, align 8
  store ptr %this, ptr %this.addr, align 8
  %this1 = load ptr, ptr %this.addr, align 8
  %call = call noundef ptr @_ZNKSt10unique_ptrIN2v811ArrayBuffer9AllocatorESt14default_deleteIS2_EE3getEv(ptr noundef nonnull align 8 dereferenceable(8) %this1) #3
  ret ptr %call
}

; Function Attrs: mustprogress nounwind uwtable
define linkonce_odr dso_local noundef ptr @_ZNKSt19__shared_ptr_accessIN4node17PerProcessOptionsELN9__gnu_cxx12_Lock_policyE2ELb0ELb0EEptEv(ptr noundef nonnull align 1 dereferenceable(1) %this) #4 comdat align 2 {
entry:
  %this.addr = alloca ptr, align 8
  store ptr %this, ptr %this.addr, align 8
  %this1 = load ptr, ptr %this.addr, align 8
  %call = call noundef ptr @_ZNKSt19__shared_ptr_accessIN4node17PerProcessOptionsELN9__gnu_cxx12_Lock_policyE2ELb0ELb0EE6_M_getEv(ptr noundef nonnull align 1 dereferenceable(1) %this1) #3
  ret ptr %call
}

; Function Attrs: mustprogress nounwind uwtable
define dso_local noundef ptr @_ZN4node24NodeArrayBufferAllocator8AllocateEm(ptr noundef nonnull align 8 dereferenceable(32) %this, i64 noundef %size) unnamed_addr #4 align 2 {
entry:
  %this.addr.i = alloca ptr, align 8
  %__i.addr.i = alloca i64, align 8
  %__m.addr.i = alloca i32, align 4
  %.atomictmp.i = alloca i64, align 8
  %atomic-temp.i = alloca i64, align 8
  %this.addr = alloca ptr, align 8
  %size.addr = alloca i64, align 8
  %ret = alloca ptr, align 8
  store ptr %this, ptr %this.addr, align 8
  store i64 %size, ptr %size.addr, align 8
  %this1 = load ptr, ptr %this.addr, align 8
  %zero_fill_field_ = getelementptr inbounds %"class.node::NodeArrayBufferAllocator", ptr %this1, i32 0, i32 1
  %0 = load i32, ptr %zero_fill_field_, align 8
  %tobool = icmp ne i32 %0, 0
  br i1 %tobool, label %if.then, label %lor.lhs.false

lor.lhs.false:                                    ; preds = %entry
  %call = call noundef ptr @_ZNKSt19__shared_ptr_accessIN4node17PerProcessOptionsELN9__gnu_cxx12_Lock_policyE2ELb0ELb0EEptEv(ptr noundef nonnull align 1 dereferenceable(1) @_ZN4node11per_process11cli_optionsE) #3
  %zero_fill_all_buffers = getelementptr inbounds %"class.node::PerProcessOptions", ptr %call, i32 0, i32 6
  %1 = load i8, ptr %zero_fill_all_buffers, align 8
  %tobool2 = trunc i8 %1 to i1
  br i1 %tobool2, label %if.then, label %if.else

if.then:                                          ; preds = %lor.lhs.false, %entry
  %allocator_ = getelementptr inbounds %"class.node::NodeArrayBufferAllocator", ptr %this1, i32 0, i32 3
  %call3 = call noundef ptr @_ZNKSt10unique_ptrIN2v811ArrayBuffer9AllocatorESt14default_deleteIS2_EEptEv(ptr noundef nonnull align 8 dereferenceable(8) %allocator_) #3
  %2 = load i64, ptr %size.addr, align 8
  %vtable = load ptr, ptr %call3, align 8
  %vfn = getelementptr inbounds ptr, ptr %vtable, i64 2
  %3 = load ptr, ptr %vfn, align 8
  %call4 = call noundef ptr %3(ptr noundef nonnull align 8 dereferenceable(8) %call3, i64 noundef %2)
  store ptr %call4, ptr %ret, align 8
  br label %if.end

if.else:                                          ; preds = %lor.lhs.false
  %allocator_5 = getelementptr inbounds %"class.node::NodeArrayBufferAllocator", ptr %this1, i32 0, i32 3
  %call6 = call noundef ptr @_ZNKSt10unique_ptrIN2v811ArrayBuffer9AllocatorESt14default_deleteIS2_EEptEv(ptr noundef nonnull align 8 dereferenceable(8) %allocator_5) #3
  %4 = load i64, ptr %size.addr, align 8
  %vtable7 = load ptr, ptr %call6, align 8
  %vfn8 = getelementptr inbounds ptr, ptr %vtable7, i64 3
  %5 = load ptr, ptr %vfn8, align 8
  %call9 = call noundef ptr %5(ptr noundef nonnull align 8 dereferenceable(8) %call6, i64 noundef %4)
  store ptr %call9, ptr %ret, align 8
  br label %if.end

if.end:                                           ; preds = %if.else, %if.then
  %6 = load ptr, ptr %ret, align 8
  %cmp = icmp ne ptr %6, null
  %lnot = xor i1 %cmp, true
  %lnot10 = xor i1 %lnot, true
  br i1 %lnot10, label %if.then11, label %if.end13

if.then11:                                        ; preds = %if.end
  %total_mem_usage_ = getelementptr inbounds %"class.node::NodeArrayBufferAllocator", ptr %this1, i32 0, i32 2
  %7 = load i64, ptr %size.addr, align 8
  store ptr %total_mem_usage_, ptr %this.addr.i, align 8
  store i64 %7, ptr %__i.addr.i, align 8
  store i32 0, ptr %__m.addr.i, align 4
  %this1.i = load ptr, ptr %this.addr.i, align 8
  %8 = load i32, ptr %__m.addr.i, align 4
  %9 = load i64, ptr %__i.addr.i, align 8
  store i64 %9, ptr %.atomictmp.i, align 8
  switch i32 %8, label %monotonic.i [
    i32 1, label %acquire.i
    i32 2, label %acquire.i
    i32 3, label %release.i
    i32 4, label %acqrel.i
    i32 5, label %seqcst.i
  ]

monotonic.i:                                      ; preds = %if.then11
  %10 = load i64, ptr %.atomictmp.i, align 8
  %11 = atomicrmw add ptr %this1.i, i64 %10 monotonic, align 8
  store i64 %11, ptr %atomic-temp.i, align 8
  br label %_ZNSt13__atomic_baseImE9fetch_addEmSt12memory_order.exit

acquire.i:                                        ; preds = %if.then11, %if.then11
  %12 = load i64, ptr %.atomictmp.i, align 8
  %13 = atomicrmw add ptr %this1.i, i64 %12 acquire, align 8
  store i64 %13, ptr %atomic-temp.i, align 8
  br label %_ZNSt13__atomic_baseImE9fetch_addEmSt12memory_order.exit

release.i:                                        ; preds = %if.then11
  %14 = load i64, ptr %.atomictmp.i, align 8
  %15 = atomicrmw add ptr %this1.i, i64 %14 release, align 8
  store i64 %15, ptr %atomic-temp.i, align 8
  br label %_ZNSt13__atomic_baseImE9fetch_addEmSt12memory_order.exit

acqrel.i:                                         ; preds = %if.then11
  %16 = load i64, ptr %.atomictmp.i, align 8
  %17 = atomicrmw add ptr %this1.i, i64 %16 acq_rel, align 8
  store i64 %17, ptr %atomic-temp.i, align 8
  br label %_ZNSt13__atomic_baseImE9fetch_addEmSt12memory_order.exit

seqcst.i:                                         ; preds = %if.then11
  %18 = load i64, ptr %.atomictmp.i, align 8
  %19 = atomicrmw add ptr %this1.i, i64 %18 seq_cst, align 8
  store i64 %19, ptr %atomic-temp.i, align 8
  br label %_ZNSt13__atomic_baseImE9fetch_addEmSt12memory_order.exit

_ZNSt13__atomic_baseImE9fetch_addEmSt12memory_order.exit: ; preds = %seqcst.i, %acqrel.i, %release.i, %acquire.i, %monotonic.i
  br label %if.end13

if.end13:                                         ; preds = %_ZNSt13__atomic_baseImE9fetch_addEmSt12memory_order.exit, %if.end
  %20 = load ptr, ptr %ret, align 8
  ret ptr %20
}