; Function Attrs: mustprogress nounwind uwtable
define dso_local noundef ptr @_ZN4node24NodeArrayBufferAllocator8AllocateEm(ptr nocapture noundef nonnull align 8 dereferenceable(32) %this, i64 noundef %size) unnamed_addr #3 align 2 {
entry:
  %zero_fill_field_ = getelementptr inbounds i8, ptr %this, i64 8
  %0 = load i32, ptr %zero_fill_field_, align 8
  %tobool.not = icmp eq i32 %0, 0
  br i1 %tobool.not, label %lor.lhs.false, label %if.end

lor.lhs.false:                                    ; preds = %entry
  %1 = load ptr, ptr @_ZN4node11per_process11cli_optionsE, align 8
  %zero_fill_all_buffers = getelementptr inbounds i8, ptr %1, i64 128
  %2 = load i8, ptr %zero_fill_all_buffers, align 8
  %3 = and i8 %2, 1
  %tobool2.not = icmp eq i8 %3, 0
  %spec.select = select i1 %tobool2.not, i64 24, i64 16
  br label %if.end

if.end:                                           ; preds = %lor.lhs.false, %entry
  %.sink9 = phi i64 [ 16, %entry ], [ %spec.select, %lor.lhs.false ]
  %allocator_5 = getelementptr inbounds i8, ptr %this, i64 24
  %4 = load ptr, ptr %allocator_5, align 8
  %vtable7 = load ptr, ptr %4, align 8
  %vfn8 = getelementptr inbounds i8, ptr %vtable7, i64 %.sink9
  %5 = load ptr, ptr %vfn8, align 8
  %call9 = tail call noundef ptr %5(ptr noundef nonnull align 8 dereferenceable(8) %4, i64 noundef %size) #12
  %cmp.not = icmp eq ptr %call9, null
  br i1 %cmp.not, label %if.end13, label %monotonic.i

monotonic.i:                                      ; preds = %if.end
  %total_mem_usage_ = getelementptr inbounds i8, ptr %this, i64 16
  %6 = atomicrmw add ptr %total_mem_usage_, i64 %size monotonic, align 8
  br label %if.end13

if.end13:                                         ; preds = %monotonic.i, %if.end
  ret ptr %call9
}